target datalayout = "e-m:e-p270:32:32-p271:32:32-p272:64:64-i64:64-i128:128-f80:128-n8:16:32:64-S128"
target triple = "x86_64-unknown-linux-gnu"

%struct.tdefl_compressor = type { ptr, ptr, i32, [2 x i32], i32, i32, i32, i32, i32, ptr, ptr, ptr, ptr, i32, i32, i32, i32, i32, i32, i32, i32, i32, i32, i32, i32, i32, i32, ptr, ptr, ptr, ptr, i32, ptr, i64, i64, [33025 x i8], [3 x [288 x i16]], [3 x [288 x i16]], [3 x [288 x i8]], [65536 x i8], [32768 x i16], [32768 x i16], [85196 x i8] }

; Function Attrs: nounwind uwtable
define hidden i32 @tdefl_init(ptr noundef %d, ptr noundef %pPut_buf_func, ptr noundef %pPut_buf_user, i32 noundef %flags) #0 {
entry:
  %d.addr = alloca ptr, align 8
  %pPut_buf_func.addr = alloca ptr, align 8
  %pPut_buf_user.addr = alloca ptr, align 8
  %flags.addr = alloca i32, align 4
  store ptr %d, ptr %d.addr, align 8
  store ptr %pPut_buf_func, ptr %pPut_buf_func.addr, align 8
  store ptr %pPut_buf_user, ptr %pPut_buf_user.addr, align 8
  store i32 %flags, ptr %flags.addr, align 4
  %0 = load ptr, ptr %pPut_buf_func.addr, align 8
  %1 = load ptr, ptr %d.addr, align 8
  %m_pPut_buf_func = getelementptr inbounds %struct.tdefl_compressor, ptr %1, i32 0, i32 0
  store ptr %0, ptr %m_pPut_buf_func, align 8
  %2 = load ptr, ptr %pPut_buf_user.addr, align 8
  %3 = load ptr, ptr %d.addr, align 8
  %m_pPut_buf_user = getelementptr inbounds %struct.tdefl_compressor, ptr %3, i32 0, i32 1
  store ptr %2, ptr %m_pPut_buf_user, align 8
  %4 = load i32, ptr %flags.addr, align 4
  %5 = load ptr, ptr %d.addr, align 8
  %m_flags = getelementptr inbounds %struct.tdefl_compressor, ptr %5, i32 0, i32 2
  store i32 %4, ptr %m_flags, align 8
  %6 = load i32, ptr %flags.addr, align 4
  %and = and i32 %6, 4095
  %add = add nsw i32 %and, 2
  %div = sdiv i32 %add, 3
  %add1 = add nsw i32 1, %div
  %7 = load ptr, ptr %d.addr, align 8
  %m_max_probes = getelementptr inbounds %struct.tdefl_compressor, ptr %7, i32 0, i32 3
  %arrayidx = getelementptr inbounds [2 x i32], ptr %m_max_probes, i64 0, i64 0
  store i32 %add1, ptr %arrayidx, align 4
  %8 = load i32, ptr %flags.addr, align 4
  %and2 = and i32 %8, 16384
  %cmp = icmp ne i32 %and2, 0
  %conv = zext i1 %cmp to i32
  %9 = load ptr, ptr %d.addr, align 8
  %m_greedy_parsing = getelementptr inbounds %struct.tdefl_compressor, ptr %9, i32 0, i32 4
  store i32 %conv, ptr %m_greedy_parsing, align 4
  %10 = load i32, ptr %flags.addr, align 4
  %and3 = and i32 %10, 4095
  %shr = ashr i32 %and3, 2
  %add4 = add nsw i32 %shr, 2
  %div5 = sdiv i32 %add4, 3
  %add6 = add nsw i32 1, %div5
  %11 = load ptr, ptr %d.addr, align 8
  %m_max_probes7 = getelementptr inbounds %struct.tdefl_compressor, ptr %11, i32 0, i32 3
  %arrayidx8 = getelementptr inbounds [2 x i32], ptr %m_max_probes7, i64 0, i64 1
  store i32 %add6, ptr %arrayidx8, align 4
  %12 = load i32, ptr %flags.addr, align 4
  %and9 = and i32 %12, 32768
  %tobool = icmp ne i32 %and9, 0
  br i1 %tobool, label %if.end, label %if.then

if.then:                                          ; preds = %entry
  %13 = load ptr, ptr %d.addr, align 8
  %m_hash = getelementptr inbounds %struct.tdefl_compressor, ptr %13, i32 0, i32 41
  call void @llvm.memset.p0.i64(ptr align 2 %m_hash, i8 0, i64 65536, i1 false)
  br label %if.end

if.end:                                           ; preds = %if.then, %entry
  %14 = load ptr, ptr %d.addr, align 8
  %m_bits_in = getelementptr inbounds %struct.tdefl_compressor, ptr %14, i32 0, i32 16
  store i32 0, ptr %m_bits_in, align 4
  %15 = load ptr, ptr %d.addr, align 8
  %m_lz_code_buf_dict_pos = getelementptr inbounds %struct.tdefl_compressor, ptr %15, i32 0, i32 15
  store i32 0, ptr %m_lz_code_buf_dict_pos, align 8
  %16 = load ptr, ptr %d.addr, align 8
  %m_total_lz_bytes = getelementptr inbounds %struct.tdefl_compressor, ptr %16, i32 0, i32 14
  store i32 0, ptr %m_total_lz_bytes, align 4
  %17 = load ptr, ptr %d.addr, align 8
  %m_dict_size = getelementptr inbounds %struct.tdefl_compressor, ptr %17, i32 0, i32 8
  store i32 0, ptr %m_dict_size, align 4
  %18 = load ptr, ptr %d.addr, align 8
  %m_lookahead_size = getelementptr inbounds %struct.tdefl_compressor, ptr %18, i32 0, i32 7
  store i32 0, ptr %m_lookahead_size, align 8
  %19 = load ptr, ptr %d.addr, align 8
  %m_lookahead_pos = getelementptr inbounds %struct.tdefl_compressor, ptr %19, i32 0, i32 6
  store i32 0, ptr %m_lookahead_pos, align 4
  %20 = load ptr, ptr %d.addr, align 8
  %m_wants_to_finish = getelementptr inbounds %struct.tdefl_compressor, ptr %20, i32 0, i32 25
  store i32 0, ptr %m_wants_to_finish, align 8
  %21 = load ptr, ptr %d.addr, align 8
  %m_bit_buffer = getelementptr inbounds %struct.tdefl_compressor, ptr %21, i32 0, i32 17
  store i32 0, ptr %m_bit_buffer, align 8
  %22 = load ptr, ptr %d.addr, align 8
  %m_block_index = getelementptr inbounds %struct.tdefl_compressor, ptr %22, i32 0, i32 24
  store i32 0, ptr %m_block_index, align 4
  %23 = load ptr, ptr %d.addr, align 8
  %m_finished = getelementptr inbounds %struct.tdefl_compressor, ptr %23, i32 0, i32 23
  store i32 0, ptr %m_finished, align 8
  %24 = load ptr, ptr %d.addr, align 8
  %m_output_flush_remaining = getelementptr inbounds %struct.tdefl_compressor, ptr %24, i32 0, i32 22
  store i32 0, ptr %m_output_flush_remaining, align 4
  %25 = load ptr, ptr %d.addr, align 8
  %m_output_flush_ofs = getelementptr inbounds %struct.tdefl_compressor, ptr %25, i32 0, i32 21
  store i32 0, ptr %m_output_flush_ofs, align 8
  %26 = load ptr, ptr %d.addr, align 8
  %m_lz_code_buf = getelementptr inbounds %struct.tdefl_compressor, ptr %26, i32 0, i32 39
  %arraydecay = getelementptr inbounds [65536 x i8], ptr %m_lz_code_buf, i64 0, i64 0
  %add.ptr = getelementptr inbounds i8, ptr %arraydecay, i64 1
  %27 = load ptr, ptr %d.addr, align 8
  %m_pLZ_code_buf = getelementptr inbounds %struct.tdefl_compressor, ptr %27, i32 0, i32 9
  store ptr %add.ptr, ptr %m_pLZ_code_buf, align 8
  %28 = load ptr, ptr %d.addr, align 8
  %m_lz_code_buf10 = getelementptr inbounds %struct.tdefl_compressor, ptr %28, i32 0, i32 39
  %arraydecay11 = getelementptr inbounds [65536 x i8], ptr %m_lz_code_buf10, i64 0, i64 0
  %29 = load ptr, ptr %d.addr, align 8
  %m_pLZ_flags = getelementptr inbounds %struct.tdefl_compressor, ptr %29, i32 0, i32 10
  store ptr %arraydecay11, ptr %m_pLZ_flags, align 8
  %30 = load ptr, ptr %d.addr, align 8
  %m_num_flags_left = getelementptr inbounds %struct.tdefl_compressor, ptr %30, i32 0, i32 13
  store i32 8, ptr %m_num_flags_left, align 8
  %31 = load ptr, ptr %d.addr, align 8
  %m_output_buf = getelementptr inbounds %struct.tdefl_compressor, ptr %31, i32 0, i32 42
  %arraydecay12 = getelementptr inbounds [85196 x i8], ptr %m_output_buf, i64 0, i64 0
  %32 = load ptr, ptr %d.addr, align 8
  %m_pOutput_buf = getelementptr inbounds %struct.tdefl_compressor, ptr %32, i32 0, i32 11
  store ptr %arraydecay12, ptr %m_pOutput_buf, align 8
  %33 = load ptr, ptr %d.addr, align 8
  %m_output_buf13 = getelementptr inbounds %struct.tdefl_compressor, ptr %33, i32 0, i32 42
  %arraydecay14 = getelementptr inbounds [85196 x i8], ptr %m_output_buf13, i64 0, i64 0
  %34 = load ptr, ptr %d.addr, align 8
  %m_pOutput_buf_end = getelementptr inbounds %struct.tdefl_compressor, ptr %34, i32 0, i32 12
  store ptr %arraydecay14, ptr %m_pOutput_buf_end, align 8
  %35 = load ptr, ptr %d.addr, align 8
  %m_prev_return_status = getelementptr inbounds %struct.tdefl_compressor, ptr %35, i32 0, i32 26
  store i32 0, ptr %m_prev_return_status, align 4
  %36 = load ptr, ptr %d.addr, align 8
  %m_saved_lit = getelementptr inbounds %struct.tdefl_compressor, ptr %36, i32 0, i32 20
  store i32 0, ptr %m_saved_lit, align 4
  %37 = load ptr, ptr %d.addr, align 8
  %m_saved_match_len = getelementptr inbounds %struct.tdefl_compressor, ptr %37, i32 0, i32 19
  store i32 0, ptr %m_saved_match_len, align 8
  %38 = load ptr, ptr %d.addr, align 8
  %m_saved_match_dist = getelementptr inbounds %struct.tdefl_compressor, ptr %38, i32 0, i32 18
  store i32 0, ptr %m_saved_match_dist, align 4
  %39 = load ptr, ptr %d.addr, align 8
  %m_adler32 = getelementptr inbounds %struct.tdefl_compressor, ptr %39, i32 0, i32 5
  store i32 1, ptr %m_adler32, align 8
  %40 = load ptr, ptr %d.addr, align 8
  %m_pIn_buf = getelementptr inbounds %struct.tdefl_compressor, ptr %40, i32 0, i32 27
  store ptr null, ptr %m_pIn_buf, align 8
  %41 = load ptr, ptr %d.addr, align 8
  %m_pOut_buf = getelementptr inbounds %struct.tdefl_compressor, ptr %41, i32 0, i32 28
  store ptr null, ptr %m_pOut_buf, align 8
  %42 = load ptr, ptr %d.addr, align 8
  %m_pIn_buf_size = getelementptr inbounds %struct.tdefl_compressor, ptr %42, i32 0, i32 29
  store ptr null, ptr %m_pIn_buf_size, align 8
  %43 = load ptr, ptr %d.addr, align 8
  %m_pOut_buf_size = getelementptr inbounds %struct.tdefl_compressor, ptr %43, i32 0, i32 30
  store ptr null, ptr %m_pOut_buf_size, align 8
  %44 = load ptr, ptr %d.addr, align 8
  %m_flush = getelementptr inbounds %struct.tdefl_compressor, ptr %44, i32 0, i32 31
  store i32 0, ptr %m_flush, align 8
  %45 = load ptr, ptr %d.addr, align 8
  %m_pSrc = getelementptr inbounds %struct.tdefl_compressor, ptr %45, i32 0, i32 32
  store ptr null, ptr %m_pSrc, align 8
  %46 = load ptr, ptr %d.addr, align 8
  %m_src_buf_left = getelementptr inbounds %struct.tdefl_compressor, ptr %46, i32 0, i32 33
  store i64 0, ptr %m_src_buf_left, align 8
  %47 = load ptr, ptr %d.addr, align 8
  %m_out_buf_ofs = getelementptr inbounds %struct.tdefl_compressor, ptr %47, i32 0, i32 34
  store i64 0, ptr %m_out_buf_ofs, align 8
  %48 = load ptr, ptr %d.addr, align 8
  %m_huff_count = getelementptr inbounds %struct.tdefl_compressor, ptr %48, i32 0, i32 36
  %arrayidx15 = getelementptr inbounds [3 x [288 x i16]], ptr %m_huff_count, i64 0, i64 0
  %arrayidx16 = getelementptr inbounds [288 x i16], ptr %arrayidx15, i64 0, i64 0
  call void @llvm.memset.p0.i64(ptr align 2 %arrayidx16, i8 0, i64 576, i1 false)
  %49 = load ptr, ptr %d.addr, align 8
  %m_huff_count17 = getelementptr inbounds %struct.tdefl_compressor, ptr %49, i32 0, i32 36
  %arrayidx18 = getelementptr inbounds [3 x [288 x i16]], ptr %m_huff_count17, i64 0, i64 1
  %arrayidx19 = getelementptr inbounds [288 x i16], ptr %arrayidx18, i64 0, i64 0
  call void @llvm.memset.p0.i64(ptr align 2 %arrayidx19, i8 0, i64 64, i1 false)
  ret i32 0
}