; Function Attrs: mustprogress nofree norecurse nosync nounwind willreturn memory(argmem: write) uwtable
define hidden noundef i32 @tdefl_init(ptr noundef initializes((0, 32), (36, 48), (84, 100), (112, 132)) %d, ptr noundef %pPut_buf_func, ptr noundef %pPut_buf_user, i32 noundef %flags) local_unnamed_addr #6 {
entry:
  store ptr %pPut_buf_func, ptr %d, align 8
  %m_pPut_buf_user = getelementptr inbounds nuw i8, ptr %d, i64 8
  store ptr %pPut_buf_user, ptr %m_pPut_buf_user, align 8
  %m_flags = getelementptr inbounds nuw i8, ptr %d, i64 16
  store i32 %flags, ptr %m_flags, align 8
  %and = and i32 %flags, 4095
  %0 = trunc nuw nsw i32 %and to i16
  %div.lhs.trunc = add nuw nsw i16 %0, 2
  %div47 = udiv i16 %div.lhs.trunc, 3
  %narrow = add nuw nsw i16 %div47, 1
  %add1 = zext nneg i16 %narrow to i32
  %m_max_probes = getelementptr inbounds nuw i8, ptr %d, i64 20
  store i32 %add1, ptr %m_max_probes, align 4
  %and2 = lshr i32 %flags, 14
  %and2.lobit = and i32 %and2, 1
  %m_greedy_parsing = getelementptr inbounds nuw i8, ptr %d, i64 28
  store i32 %and2.lobit, ptr %m_greedy_parsing, align 4
  %shr = lshr i32 %and, 2
  %1 = trunc nuw nsw i32 %shr to i16
  %div5.lhs.trunc = add nuw nsw i16 %1, 2
  %div548 = udiv i16 %div5.lhs.trunc, 3
  %narrow49 = add nuw nsw i16 %div548, 1
  %add6 = zext nneg i16 %narrow49 to i32
  %arrayidx8 = getelementptr inbounds nuw i8, ptr %d, i64 24
  store i32 %add6, ptr %arrayidx8, align 4
  %and9 = and i32 %flags, 32768
  %tobool.not = icmp eq i32 %and9, 0
  br i1 %tobool.not, label %if.then, label %if.end

if.then:                                          ; preds = %entry
  %m_hash = getelementptr inbounds nuw i8, ptr %d, i64 168618
  tail call void @llvm.memset.p0.i64(ptr noundef nonnull align 2 dereferenceable(65536) %m_hash, i8 0, i64 65536, i1 false)
  br label %if.end

if.end:                                           ; preds = %if.then, %entry
  %m_total_lz_bytes = getelementptr inbounds nuw i8, ptr %d, i64 84
  %m_dict_size = getelementptr inbounds nuw i8, ptr %d, i64 44
  store i32 0, ptr %m_dict_size, align 4
  %m_lookahead_size = getelementptr inbounds nuw i8, ptr %d, i64 40
  store i32 0, ptr %m_lookahead_size, align 8
  %m_lookahead_pos = getelementptr inbounds nuw i8, ptr %d, i64 36
  store i32 0, ptr %m_lookahead_pos, align 4
  %m_output_flush_ofs = getelementptr inbounds nuw i8, ptr %d, i64 112
  %m_lz_code_buf = getelementptr inbounds nuw i8, ptr %d, i64 37546
  %add.ptr = getelementptr inbounds nuw i8, ptr %d, i64 37547
  %m_pLZ_code_buf = getelementptr inbounds nuw i8, ptr %d, i64 48
  tail call void @llvm.memset.p0.i64(ptr noundef nonnull align 4 dereferenceable(16) %m_total_lz_bytes, i8 0, i64 16, i1 false)
  tail call void @llvm.memset.p0.i64(ptr noundef nonnull align 8 dereferenceable(20) %m_output_flush_ofs, i8 0, i64 20, i1 false)
  store ptr %add.ptr, ptr %m_pLZ_code_buf, align 8
  %m_pLZ_flags = getelementptr inbounds nuw i8, ptr %d, i64 56
  store ptr %m_lz_code_buf, ptr %m_pLZ_flags, align 8
  %m_num_flags_left = getelementptr inbounds nuw i8, ptr %d, i64 80
  store i32 8, ptr %m_num_flags_left, align 8
  %m_output_buf = getelementptr inbounds nuw i8, ptr %d, i64 234154
  %m_pOutput_buf = getelementptr inbounds nuw i8, ptr %d, i64 64
  store ptr %m_output_buf, ptr %m_pOutput_buf, align 8
  %m_pOutput_buf_end = getelementptr inbounds nuw i8, ptr %d, i64 72
  store ptr %m_output_buf, ptr %m_pOutput_buf_end, align 8
  %m_prev_return_status = getelementptr inbounds nuw i8, ptr %d, i64 132
  store i32 0, ptr %m_prev_return_status, align 4
  %m_saved_lit = getelementptr inbounds nuw i8, ptr %d, i64 108
  store i32 0, ptr %m_saved_lit, align 4
  %m_saved_match_len = getelementptr inbounds nuw i8, ptr %d, i64 104
  store i32 0, ptr %m_saved_match_len, align 8
  %m_saved_match_dist = getelementptr inbounds nuw i8, ptr %d, i64 100
  store i32 0, ptr %m_saved_match_dist, align 4
  %m_adler32 = getelementptr inbounds nuw i8, ptr %d, i64 32
  store i32 1, ptr %m_adler32, align 8
  %m_pIn_buf = getelementptr inbounds nuw i8, ptr %d, i64 136
  %m_pSrc = getelementptr inbounds nuw i8, ptr %d, i64 176
  %m_huff_count = getelementptr inbounds nuw i8, ptr %d, i64 33226
  tail call void @llvm.memset.p0.i64(ptr noundef nonnull align 8 dereferenceable(36) %m_pIn_buf, i8 0, i64 36, i1 false)
  tail call void @llvm.memset.p0.i64(ptr noundef nonnull align 8 dereferenceable(24) %m_pSrc, i8 0, i64 24, i1 false)
  tail call void @llvm.memset.p0.i64(ptr noundef nonnull align 2 dereferenceable(640) %m_huff_count, i8 0, i64 640, i1 false)
  ret i32 0
}